; Function Attrs: nounwind uwtable
define dso_local noundef ptr @CreateExplainSerializeDestReceiver(ptr noundef %0) local_unnamed_addr #0 {
  %2 = tail call ptr @palloc0(i64 noundef 256) #13
  store ptr @serializeAnalyzeReceive, ptr %2, align 8
  %3 = getelementptr inbounds nuw i8, ptr %2, i64 8
  store ptr @serializeAnalyzeStartup, ptr %3, align 8
  %4 = getelementptr inbounds nuw i8, ptr %2, i64 16
  store ptr @serializeAnalyzeShutdown, ptr %4, align 8
  %5 = getelementptr inbounds nuw i8, ptr %2, i64 24
  store ptr @serializeAnalyzeDestroy, ptr %5, align 8
  %6 = getelementptr inbounds nuw i8, ptr %2, i64 32
  store i32 12, ptr %6, align 8
  %7 = getelementptr inbounds nuw i8, ptr %2, i64 40
  store ptr %0, ptr %7, align 8
  ret ptr %2
}